; Function Attrs: nounwind uwtable
define ptr @l_Lean_Meta_repeat_x27___at_Lean_Elab_Tactic_evalRepeat_x27___spec__2(ptr noundef %0, ptr noundef %1, ptr noundef %2, ptr noundef %3, ptr noundef %4, ptr noundef %5, ptr noundef %6, ptr noundef %7, ptr noundef %8, ptr noundef %9, ptr noundef %10, ptr noundef %11) local_unnamed_addr #0 {
  tail call void @lean_inc_heartbeat() #4
  %13 = tail call noalias ptr @mi_malloc_small(i64 noundef 48) #4
  %14 = icmp eq ptr %13, null
  br i1 %14, label %15, label %lean_alloc_closure.exit

15:                                               ; preds = %12
  tail call void @lean_internal_panic_out_of_memory() #5
  unreachable

lean_alloc_closure.exit:                          ; preds = %12
  %16 = getelementptr inbounds nuw i8, ptr %13, i64 4
  store i32 1, ptr %13, align 4, !tbaa !8
  store i32 -184549328, ptr %16, align 4
  %17 = getelementptr inbounds nuw i8, ptr %13, i64 8
  store ptr @l_Lean_Meta_repeat_x27Core___at_Lean_Elab_Tactic_evalRepeat_x27___spec__3, ptr %17, align 8, !tbaa !4
  %18 = getelementptr inbounds nuw i8, ptr %13, i64 16
  store i16 12, ptr %18, align 8, !tbaa !11
  %19 = getelementptr inbounds nuw i8, ptr %13, i64 18
  store i16 3, ptr %19, align 2, !tbaa !11
  %20 = getelementptr inbounds nuw i8, ptr %13, i64 24
  store ptr %0, ptr %20, align 8, !tbaa !4
  %21 = getelementptr inbounds nuw i8, ptr %13, i64 32
  store ptr %1, ptr %21, align 8, !tbaa !4
  %22 = getelementptr inbounds nuw i8, ptr %13, i64 40
  store ptr %2, ptr %22, align 8, !tbaa !4
  %23 = load ptr, ptr @l_Lean_Meta_repeat_x27___at_Lean_Elab_Tactic_evalRepeat_x27___spec__2___closed__1, align 8, !tbaa !4
  %24 = tail call ptr @l_Functor_mapRev___at_Lean_Elab_Tactic_evalRepeat_x27___spec__7___rarg(ptr noundef nonnull %13, ptr noundef %23, ptr noundef %3, ptr noundef %4, ptr noundef %5, ptr noundef %6, ptr noundef %7, ptr noundef %8, ptr noundef %9, ptr noundef %10, ptr noundef %11)
  ret ptr %24
}